; Function Attrs: mustprogress uwtable
define hidden void @_Z29create_random_one_line_stringB5cxx11m(ptr dead_on_unwind noalias writable sret(%"class.std::__cxx11::basic_string.1") align 8 %0, i64 noundef %1) local_unnamed_addr #4 personality ptr @__gxx_personality_v0 {
  tail call void @_ZN5boost6nowide4test18create_random_dataB5cxx11EmNS1_9data_typeE(ptr dead_on_unwind writable sret(%"class.std::__cxx11::basic_string.1") align 8 %0, i64 noundef %1, i32 noundef 0)
  %3 = load ptr, ptr %0, align 8, !tbaa !18
  %4 = getelementptr inbounds nuw i8, ptr %0, i64 8
  %5 = load i64, ptr %4, align 8, !tbaa !21
  %6 = getelementptr inbounds nuw i8, ptr %3, i64 %5
  %.not6.i = icmp eq i64 %5, 0
  br i1 %.not6.i, label %_ZSt7replaceIN9__gnu_cxx17__normal_iteratorIPcNSt7__cxx1112basic_stringIcSt11char_traitsIcESaIcEEEEEcEvT_SA_RKT0_SD_.exit, label %.lr.ph.i

.lr.ph.i:                                         ; preds = %2, %10
  %.sroa.02.07.i = phi ptr [ %11, %10 ], [ %3, %2 ]
  %7 = load i8, ptr %.sroa.02.07.i, align 1, !tbaa !20
  %8 = icmp eq i8 %7, 10
  br i1 %8, label %9, label %10

9:                                                ; preds = %.lr.ph.i
  store i8 97, ptr %.sroa.02.07.i, align 1, !tbaa !20
  br label %10

10:                                               ; preds = %9, %.lr.ph.i
  %11 = getelementptr inbounds nuw i8, ptr %.sroa.02.07.i, i64 1
  %.not.i = icmp eq ptr %11, %6
  br i1 %.not.i, label %_ZSt7replaceIN9__gnu_cxx17__normal_iteratorIPcNSt7__cxx1112basic_stringIcSt11char_traitsIcESaIcEEEEEcEvT_SA_RKT0_SD_.exit, label %.lr.ph.i, !llvm.loop !61

_ZSt7replaceIN9__gnu_cxx17__normal_iteratorIPcNSt7__cxx1112basic_stringIcSt11char_traitsIcESaIcEEEEEcEvT_SA_RKT0_SD_.exit: ; preds = %10, %2
  ret void
}